target datalayout = "e-m:e-p270:32:32-p271:32:32-p272:64:64-i64:64-i128:128-f80:128-n8:16:32:64-S128"
target triple = "x86_64-pc-linux-gnu"

%struct.lua_State = type { %struct.GCRef, i8, i8, i8, i8, %struct.MRef, %struct.GCRef, ptr, ptr, %struct.MRef, %struct.MRef, %struct.GCRef, %struct.GCRef, ptr, i32 }
%struct.MRef = type { i64 }
%struct.GCRef = type { i64 }
%union.TValue = type { i64 }
%struct.GCfuncC = type { %struct.GCRef, i8, i8, i8, i8, %struct.GCRef, %struct.GCRef, %struct.MRef, ptr, [1 x %union.TValue] }

; Function Attrs: nounwind uwtable
define internal i32 @ffi_arith(ptr noundef %0) #0 {
  %2 = alloca ptr, align 8
  %3 = alloca i32, align 4
  store ptr %0, ptr %2, align 8, !tbaa !4
  call void @llvm.lifetime.start.p0(i64 4, ptr %3) #10
  %4 = load ptr, ptr %2, align 8, !tbaa !4
  %5 = getelementptr inbounds nuw %struct.lua_State, ptr %4, i32 0, i32 7
  %6 = load ptr, ptr %5, align 8, !tbaa !37
  %7 = getelementptr inbounds %union.TValue, ptr %6, i64 -2
  %8 = getelementptr inbounds nuw %struct.GCRef, ptr %7, i32 0, i32 0
  %9 = load i64, ptr %8, align 8, !tbaa !26
  %10 = and i64 %9, 140737488355327
  %11 = inttoptr i64 %10 to ptr
  %12 = getelementptr inbounds nuw %struct.GCfuncC, ptr %11, i32 0, i32 3
  %13 = load i8, ptr %12, align 2, !tbaa !26
  %14 = zext i8 %13 to i32
  %15 = sub nsw i32 %14, 166
  %16 = add nsw i32 %15, 4
  store i32 %16, ptr %3, align 4, !tbaa !34
  %17 = load ptr, ptr %2, align 8, !tbaa !4
  %18 = load i32, ptr %3, align 4, !tbaa !34
  %19 = call i32 @lj_carith_op(ptr noundef %17, i32 noundef %18)
  call void @llvm.lifetime.end.p0(i64 4, ptr %3) #10
  ret i32 %19
}

; Function Attrs: nounwind uwtable
define internal i32 @lj_cf_ffi_meta___pow(ptr noundef %0) #0 {
  %2 = alloca ptr, align 8
  store ptr %0, ptr %2, align 8, !tbaa !4
  %3 = load ptr, ptr %2, align 8, !tbaa !4
  %4 = call i32 @ffi_arith(ptr noundef %3)
  ret i32 %4
}